target datalayout = "e-m:e-p270:32:32-p271:32:32-p272:64:64-i64:64-i128:128-f80:128-n8:16:32:64-S128"
target triple = "x86_64-pc-linux-gnu"

%struct.Curl_multi = type { i32, i32, i32, %struct.Curl_llist, %struct.Curl_llist, %struct.Curl_llist, %struct.Curl_llist, i64, ptr, ptr, ptr, ptr, %struct.Curl_hash, ptr, %struct.PslCache, ptr, ptr, i64, ptr, i64, ptr, i64, %struct.Curl_hash, %struct.Curl_hash, %struct.cpool, i64, i64, ptr, ptr, i64, %struct.curltime, [2 x i32], i32, i32, i8, i8 }
%struct.Curl_llist = type { ptr, ptr, ptr, i64 }
%struct.PslCache = type { ptr, i64, i8 }
%struct.Curl_hash = type { ptr, ptr, ptr, ptr, i64, i64 }
%struct.cpool = type { %struct.Curl_hash, i64, i64, i64, %struct.curltime, %struct.Curl_llist, ptr, ptr, ptr, ptr, i8 }
%struct.curltime = type { i64, i32 }
%struct.Curl_hash_iterator = type { ptr, i64, ptr }
%struct.Curl_hash_element = type { %struct.Curl_llist_node, ptr, ptr, i64, [1 x i8] }
%struct.Curl_llist_node = type { ptr, ptr, ptr, ptr }
%struct.Curl_sh_entry = type { %struct.Curl_hash, i32, i32, ptr, i32, i32 }

@Curl_ccalloc = external global ptr, align 8
@Curl_cfree = external global ptr, align 8

; Function Attrs: nounwind uwtable
define internal void @sockhash_destroy(ptr noundef %0) #0 {
  %2 = alloca ptr, align 8
  %3 = alloca %struct.Curl_hash_iterator, align 8
  %4 = alloca ptr, align 8
  %5 = alloca ptr, align 8
  store ptr %0, ptr %2, align 8, !tbaa !32
  call void @llvm.lifetime.start.p0(i64 24, ptr %3) #9
  call void @llvm.lifetime.start.p0(i64 8, ptr %4) #9
  br label %6

6:                                                ; preds = %1
  br label %7

7:                                                ; preds = %6
  br label %8

8:                                                ; preds = %7
  %9 = load ptr, ptr %2, align 8, !tbaa !32
  call void @Curl_hash_start_iterate(ptr noundef %9, ptr noundef %3)
  %10 = call ptr @Curl_hash_next_element(ptr noundef %3)
  store ptr %10, ptr %4, align 8, !tbaa !34
  br label %11

11:                                               ; preds = %14, %8
  %12 = load ptr, ptr %4, align 8, !tbaa !34
  %13 = icmp ne ptr %12, null
  br i1 %13, label %14, label %21

14:                                               ; preds = %11
  call void @llvm.lifetime.start.p0(i64 8, ptr %5) #9
  %15 = load ptr, ptr %4, align 8, !tbaa !34
  %16 = getelementptr inbounds nuw %struct.Curl_hash_element, ptr %15, i32 0, i32 1
  %17 = load ptr, ptr %16, align 8, !tbaa !36
  store ptr %17, ptr %5, align 8, !tbaa !39
  %18 = load ptr, ptr %5, align 8, !tbaa !39
  %19 = getelementptr inbounds nuw %struct.Curl_sh_entry, ptr %18, i32 0, i32 0
  call void @Curl_hash_destroy(ptr noundef %19)
  %20 = call ptr @Curl_hash_next_element(ptr noundef %3)
  store ptr %20, ptr %4, align 8, !tbaa !34
  call void @llvm.lifetime.end.p0(i64 8, ptr %5) #9
  br label %11, !llvm.loop !41

21:                                               ; preds = %11
  %22 = load ptr, ptr %2, align 8, !tbaa !32
  call void @Curl_hash_destroy(ptr noundef %22)
  call void @llvm.lifetime.end.p0(i64 8, ptr %4) #9
  call void @llvm.lifetime.end.p0(i64 24, ptr %3) #9
  ret void
}

; Function Attrs: nounwind uwtable
define internal void @sh_init(ptr noundef %0, i64 noundef %1) #0 {
  %3 = alloca ptr, align 8
  %4 = alloca i64, align 8
  store ptr %0, ptr %3, align 8, !tbaa !32
  store i64 %1, ptr %4, align 8, !tbaa !3
  %5 = load ptr, ptr %3, align 8, !tbaa !32
  %6 = load i64, ptr %4, align 8, !tbaa !3
  call void @Curl_hash_init(ptr noundef %5, i64 noundef %6, ptr noundef @hash_fd, ptr noundef @fd_key_compare, ptr noundef @sh_freeentry)
  ret void
}

; Function Attrs: nounwind uwtable
define hidden ptr @Curl_multi_handle(i64 noundef %0, i64 noundef %1, i64 noundef %2, i64 noundef %3) #0 {
  %5 = alloca ptr, align 8
  %6 = alloca i64, align 8
  %7 = alloca i64, align 8
  %8 = alloca i64, align 8
  %9 = alloca i64, align 8
  %10 = alloca ptr, align 8
  %11 = alloca i32, align 4
  store i64 %0, ptr %6, align 8, !tbaa !3
  store i64 %1, ptr %7, align 8, !tbaa !3
  store i64 %2, ptr %8, align 8, !tbaa !3
  store i64 %3, ptr %9, align 8, !tbaa !3
  call void @llvm.lifetime.start.p0(i64 8, ptr %10) #9
  %12 = load ptr, ptr @Curl_ccalloc, align 8, !tbaa !7
  %13 = call ptr %12(i64 noundef 1, i64 noundef 656)
  store ptr %13, ptr %10, align 8, !tbaa !9
  %14 = load ptr, ptr %10, align 8, !tbaa !9
  %15 = icmp ne ptr %14, null
  br i1 %15, label %17, label %16

16:                                               ; preds = %4
  store ptr null, ptr %5, align 8
  store i32 1, ptr %11, align 4
  br label %88

17:                                               ; preds = %4
  %18 = load ptr, ptr %10, align 8, !tbaa !9
  %19 = getelementptr inbounds nuw %struct.Curl_multi, ptr %18, i32 0, i32 0
  store i32 764702, ptr %19, align 8, !tbaa !11
  %20 = load ptr, ptr %10, align 8, !tbaa !9
  %21 = getelementptr inbounds nuw %struct.Curl_multi, ptr %20, i32 0, i32 12
  %22 = load i64, ptr %8, align 8, !tbaa !3
  call void @Curl_init_dnscache(ptr noundef %21, i64 noundef %22)
  %23 = load ptr, ptr %10, align 8, !tbaa !9
  %24 = getelementptr inbounds nuw %struct.Curl_multi, ptr %23, i32 0, i32 22
  %25 = load i64, ptr %6, align 8, !tbaa !3
  call void @sh_init(ptr noundef %24, i64 noundef %25)
  %26 = load ptr, ptr %10, align 8, !tbaa !9
  %27 = getelementptr inbounds nuw %struct.Curl_multi, ptr %26, i32 0, i32 23
  call void @Curl_hash_init(ptr noundef %27, i64 noundef 23, ptr noundef @Curl_hash_str, ptr noundef @Curl_str_key_compare, ptr noundef @ph_freeentry)
  %28 = load ptr, ptr %10, align 8, !tbaa !9
  %29 = getelementptr inbounds nuw %struct.Curl_multi, ptr %28, i32 0, i32 24
  %30 = load ptr, ptr %10, align 8, !tbaa !9
  %31 = load i64, ptr %7, align 8, !tbaa !3
  %32 = call i32 @Curl_cpool_init(ptr noundef %29, ptr noundef @Curl_on_disconnect, ptr noundef %30, ptr noundef null, i64 noundef %31)
  %33 = icmp ne i32 %32, 0
  br i1 %33, label %34, label %35

34:                                               ; preds = %17
  br label %74

35:                                               ; preds = %17
  %36 = load i64, ptr %9, align 8, !tbaa !3
  %37 = load ptr, ptr %10, align 8, !tbaa !9
  %38 = getelementptr inbounds nuw %struct.Curl_multi, ptr %37, i32 0, i32 13
  %39 = call i32 @Curl_ssl_scache_create(i64 noundef %36, i64 noundef 2, ptr noundef %38)
  %40 = icmp ne i32 %39, 0
  br i1 %40, label %41, label %42

41:                                               ; preds = %35
  br label %74

42:                                               ; preds = %35
  %43 = load ptr, ptr %10, align 8, !tbaa !9
  %44 = getelementptr inbounds nuw %struct.Curl_multi, ptr %43, i32 0, i32 3
  call void @Curl_llist_init(ptr noundef %44, ptr noundef null)
  %45 = load ptr, ptr %10, align 8, !tbaa !9
  %46 = getelementptr inbounds nuw %struct.Curl_multi, ptr %45, i32 0, i32 4
  call void @Curl_llist_init(ptr noundef %46, ptr noundef null)
  %47 = load ptr, ptr %10, align 8, !tbaa !9
  %48 = getelementptr inbounds nuw %struct.Curl_multi, ptr %47, i32 0, i32 5
  call void @Curl_llist_init(ptr noundef %48, ptr noundef null)
  %49 = load ptr, ptr %10, align 8, !tbaa !9
  %50 = getelementptr inbounds nuw %struct.Curl_multi, ptr %49, i32 0, i32 6
  call void @Curl_llist_init(ptr noundef %50, ptr noundef null)
  %51 = load ptr, ptr %10, align 8, !tbaa !9
  %52 = getelementptr inbounds nuw %struct.Curl_multi, ptr %51, i32 0, i32 35
  %53 = load i8, ptr %52, align 1
  %54 = and i8 %53, -2
  %55 = or i8 %54, 1
  store i8 %55, ptr %52, align 1
  %56 = load ptr, ptr %10, align 8, !tbaa !9
  %57 = getelementptr inbounds nuw %struct.Curl_multi, ptr %56, i32 0, i32 32
  store i32 100, ptr %57, align 8, !tbaa !28
  %58 = load ptr, ptr %10, align 8, !tbaa !9
  %59 = getelementptr inbounds nuw %struct.Curl_multi, ptr %58, i32 0, i32 29
  store i64 -1, ptr %59, align 8, !tbaa !29
  %60 = load ptr, ptr %10, align 8, !tbaa !9
  %61 = getelementptr inbounds nuw %struct.Curl_multi, ptr %60, i32 0, i32 31
  %62 = getelementptr inbounds [2 x i32], ptr %61, i64 0, i64 0
  %63 = call i32 @Curl_eventfd(ptr noundef %62, i1 noundef zeroext true)
  %64 = icmp slt i32 %63, 0
  br i1 %64, label %65, label %72

65:                                               ; preds = %42
  %66 = load ptr, ptr %10, align 8, !tbaa !9
  %67 = getelementptr inbounds nuw %struct.Curl_multi, ptr %66, i32 0, i32 31
  %68 = getelementptr inbounds [2 x i32], ptr %67, i64 0, i64 0
  store i32 -1, ptr %68, align 8, !tbaa !30
  %69 = load ptr, ptr %10, align 8, !tbaa !9
  %70 = getelementptr inbounds nuw %struct.Curl_multi, ptr %69, i32 0, i32 31
  %71 = getelementptr inbounds [2 x i32], ptr %70, i64 0, i64 1
  store i32 -1, ptr %71, align 4, !tbaa !30
  br label %72

72:                                               ; preds = %65, %42
  %73 = load ptr, ptr %10, align 8, !tbaa !9
  store ptr %73, ptr %5, align 8
  store i32 1, ptr %11, align 4
  br label %88

74:                                               ; preds = %41, %34
  %75 = load ptr, ptr %10, align 8, !tbaa !9
  %76 = getelementptr inbounds nuw %struct.Curl_multi, ptr %75, i32 0, i32 22
  call void @sockhash_destroy(ptr noundef %76)
  %77 = load ptr, ptr %10, align 8, !tbaa !9
  %78 = getelementptr inbounds nuw %struct.Curl_multi, ptr %77, i32 0, i32 23
  call void @Curl_hash_destroy(ptr noundef %78)
  %79 = load ptr, ptr %10, align 8, !tbaa !9
  %80 = getelementptr inbounds nuw %struct.Curl_multi, ptr %79, i32 0, i32 12
  call void @Curl_hash_destroy(ptr noundef %80)
  %81 = load ptr, ptr %10, align 8, !tbaa !9
  %82 = getelementptr inbounds nuw %struct.Curl_multi, ptr %81, i32 0, i32 24
  call void @Curl_cpool_destroy(ptr noundef %82)
  %83 = load ptr, ptr %10, align 8, !tbaa !9
  %84 = getelementptr inbounds nuw %struct.Curl_multi, ptr %83, i32 0, i32 13
  %85 = load ptr, ptr %84, align 8, !tbaa !31
  call void @Curl_ssl_scache_destroy(ptr noundef %85)
  %86 = load ptr, ptr @Curl_cfree, align 8, !tbaa !7
  %87 = load ptr, ptr %10, align 8, !tbaa !9
  call void %86(ptr noundef %87)
  store ptr null, ptr %5, align 8
  store i32 1, ptr %11, align 4
  br label %88

88:                                               ; preds = %74, %72, %16
  call void @llvm.lifetime.end.p0(i64 8, ptr %10) #9
  %89 = load ptr, ptr %5, align 8
  ret ptr %89
}