; Function Attrs: nounwind uwtable
define hidden ptr @Curl_multi_handle(i64 noundef %0, i64 noundef %1, i64 noundef %2, i64 noundef %3) local_unnamed_addr #0 {
  %5 = alloca %struct.Curl_hash_iterator, align 8
  %6 = load ptr, ptr @Curl_ccalloc, align 8, !tbaa !3
  %7 = tail call ptr %6(i64 noundef 1, i64 noundef 656) #19
  %.not = icmp eq ptr %7, null
  br i1 %.not, label %40, label %8

8:                                                ; preds = %4
  store i32 764702, ptr %7, align 8, !tbaa !7
  %9 = getelementptr inbounds nuw i8, ptr %7, i64 184
  tail call void @Curl_init_dnscache(ptr noundef nonnull %9, i64 noundef %2) #19
  %10 = getelementptr inbounds nuw i8, ptr %7, i64 320
  tail call void @Curl_hash_init(ptr noundef nonnull %10, i64 noundef %0, ptr noundef nonnull @hash_fd, ptr noundef nonnull @fd_key_compare, ptr noundef nonnull @sh_freeentry) #19
  %11 = getelementptr inbounds nuw i8, ptr %7, i64 368
  tail call void @Curl_hash_init(ptr noundef nonnull %11, i64 noundef 23, ptr noundef nonnull @Curl_hash_str, ptr noundef nonnull @Curl_str_key_compare, ptr noundef nonnull @ph_freeentry) #19
  %12 = getelementptr inbounds nuw i8, ptr %7, i64 416
  %13 = tail call i32 @Curl_cpool_init(ptr noundef nonnull %12, ptr noundef nonnull @Curl_on_disconnect, ptr noundef nonnull %7, ptr noundef null, i64 noundef %1) #19
  %.not30 = icmp eq i32 %13, 0
  br i1 %.not30, label %14, label %32

14:                                               ; preds = %8
  %15 = getelementptr inbounds nuw i8, ptr %7, i64 232
  %16 = tail call i32 @Curl_ssl_scache_create(i64 noundef %3, i64 noundef 2, ptr noundef nonnull %15) #19
  %.not31 = icmp eq i32 %16, 0
  br i1 %.not31, label %17, label %32

17:                                               ; preds = %14
  %18 = getelementptr inbounds nuw i8, ptr %7, i64 16
  tail call void @Curl_llist_init(ptr noundef nonnull %18, ptr noundef null) #19
  %19 = getelementptr inbounds nuw i8, ptr %7, i64 48
  tail call void @Curl_llist_init(ptr noundef nonnull %19, ptr noundef null) #19
  %20 = getelementptr inbounds nuw i8, ptr %7, i64 80
  tail call void @Curl_llist_init(ptr noundef nonnull %20, ptr noundef null) #19
  %21 = getelementptr inbounds nuw i8, ptr %7, i64 112
  tail call void @Curl_llist_init(ptr noundef nonnull %21, ptr noundef null) #19
  %22 = getelementptr inbounds nuw i8, ptr %7, i64 649
  %23 = load i8, ptr %22, align 1
  %24 = or i8 %23, 1
  store i8 %24, ptr %22, align 1
  %25 = getelementptr inbounds nuw i8, ptr %7, i64 640
  store i32 100, ptr %25, align 8, !tbaa !26
  %26 = getelementptr inbounds nuw i8, ptr %7, i64 608
  store i64 -1, ptr %26, align 8, !tbaa !27
  %27 = getelementptr inbounds nuw i8, ptr %7, i64 632
  %28 = tail call i32 @Curl_eventfd(ptr noundef nonnull %27, i1 noundef zeroext true) #19
  %29 = icmp slt i32 %28, 0
  br i1 %29, label %30, label %40

30:                                               ; preds = %17
  store i32 -1, ptr %27, align 8, !tbaa !28
  %31 = getelementptr inbounds nuw i8, ptr %7, i64 636
  store i32 -1, ptr %31, align 4, !tbaa !28
  br label %40

32:                                               ; preds = %14, %8
  call void @llvm.lifetime.start.p0(i64 24, ptr nonnull %5) #19
  call void @Curl_hash_start_iterate(ptr noundef nonnull %10, ptr noundef nonnull %5) #19
  %33 = call ptr @Curl_hash_next_element(ptr noundef nonnull %5) #19
  %.not5.i = icmp eq ptr %33, null
  br i1 %.not5.i, label %sockhash_destroy.exit, label %.lr.ph.i

.lr.ph.i:                                         ; preds = %32, %.lr.ph.i
  %.06.i = phi ptr [ %36, %.lr.ph.i ], [ %33, %32 ]
  %34 = getelementptr inbounds nuw i8, ptr %.06.i, i64 32
  %35 = load ptr, ptr %34, align 8, !tbaa !29
  call void @Curl_hash_destroy(ptr noundef %35) #19
  %36 = call ptr @Curl_hash_next_element(ptr noundef nonnull %5) #19
  %.not.i = icmp eq ptr %36, null
  br i1 %.not.i, label %sockhash_destroy.exit, label %.lr.ph.i, !llvm.loop !32

sockhash_destroy.exit:                            ; preds = %.lr.ph.i, %32
  call void @Curl_hash_destroy(ptr noundef nonnull %10) #19
  call void @llvm.lifetime.end.p0(i64 24, ptr nonnull %5) #19
  call void @Curl_hash_destroy(ptr noundef nonnull %11) #19
  call void @Curl_hash_destroy(ptr noundef nonnull %9) #19
  call void @Curl_cpool_destroy(ptr noundef nonnull %12) #19
  %37 = getelementptr inbounds nuw i8, ptr %7, i64 232
  %38 = load ptr, ptr %37, align 8, !tbaa !34
  call void @Curl_ssl_scache_destroy(ptr noundef %38) #19
  %39 = load ptr, ptr @Curl_cfree, align 8, !tbaa !3
  call void %39(ptr noundef nonnull %7) #19
  br label %40

40:                                               ; preds = %17, %30, %4, %sockhash_destroy.exit
  %.0 = phi ptr [ null, %sockhash_destroy.exit ], [ null, %4 ], [ %7, %30 ], [ %7, %17 ]
  ret ptr %.0
}